; Function Attrs: mustprogress noreturn uwtable
define void @_ZN5Ipopt13RestoIpoptNLP6grad_fERKNS_6VectorE(ptr dead_on_unwind noalias nocapture readnone sret(%"class.Ipopt::SmartPtr.19") align 8 %0, ptr nocapture nonnull readnone align 8 %1, ptr nocapture nonnull readnone align 8 %2) unnamed_addr #7 align 2 personality ptr @__gxx_personality_v0 {
  %4 = alloca %"class.std::__cxx11::basic_string", align 8
  %5 = alloca %"class.std::allocator.27", align 1
  %6 = alloca %"class.std::__cxx11::basic_string", align 8
  %7 = alloca %"class.std::allocator.27", align 1
  %8 = tail call ptr @__cxa_allocate_exception(i64 112) #17
  call void @_ZNSaIcEC1Ev(ptr noundef nonnull align 1 dereferenceable(1) %5) #17
  %9 = invoke noundef ptr @_ZNSt7__cxx1112basic_stringIcSt11char_traitsIcESaIcEE13_M_local_dataEv(ptr noundef nonnull align 8 dereferenceable(32) %4)
          to label %.noexc unwind label %16

.noexc:                                           ; preds = %3
  invoke void @_ZNSt7__cxx1112basic_stringIcSt11char_traitsIcESaIcEE12_Alloc_hiderC1EPcRKS3_(ptr noundef nonnull align 8 dereferenceable(8) %4, ptr noundef %9, ptr noundef nonnull align 1 dereferenceable(1) %5)
          to label %.noexc8 unwind label %16

.noexc8:                                          ; preds = %.noexc
  invoke void @_ZNSt7__cxx1112basic_stringIcSt11char_traitsIcESaIcEE12_M_constructIPKcEEvT_S8_St20forward_iterator_tag(ptr noundef nonnull align 8 dereferenceable(32) %4, ptr noundef nonnull @.str.12, ptr noundef nonnull getelementptr inbounds ([55 x i8], ptr @.str.12, i64 0, i64 54))
          to label %_ZNSt7__cxx1112basic_stringIcSt11char_traitsIcESaIcEEC2IS3_EEPKcRKS3_.exit unwind label %10

10:                                               ; preds = %.noexc8
  %11 = landingpad { ptr, i32 }
          cleanup
  call void @_ZNSaIcED2Ev(ptr noundef nonnull align 1 dereferenceable(1) %4) #17
  br label %.body.thread

_ZNSt7__cxx1112basic_stringIcSt11char_traitsIcESaIcEEC2IS3_EEPKcRKS3_.exit: ; preds = %.noexc8
  call void @_ZNSaIcEC1Ev(ptr noundef nonnull align 1 dereferenceable(1) %7) #17
  %12 = invoke noundef ptr @_ZNSt7__cxx1112basic_stringIcSt11char_traitsIcESaIcEE13_M_local_dataEv(ptr noundef nonnull align 8 dereferenceable(32) %6)
          to label %.noexc9 unwind label %18

.noexc9:                                          ; preds = %_ZNSt7__cxx1112basic_stringIcSt11char_traitsIcESaIcEEC2IS3_EEPKcRKS3_.exit
  invoke void @_ZNSt7__cxx1112basic_stringIcSt11char_traitsIcESaIcEE12_Alloc_hiderC1EPcRKS3_(ptr noundef nonnull align 8 dereferenceable(8) %6, ptr noundef %12, ptr noundef nonnull align 1 dereferenceable(1) %7)
          to label %.noexc10 unwind label %18

.noexc10:                                         ; preds = %.noexc9
  invoke void @_ZNSt7__cxx1112basic_stringIcSt11char_traitsIcESaIcEE12_M_constructIPKcEEvT_S8_St20forward_iterator_tag(ptr noundef nonnull align 8 dereferenceable(32) %6, ptr noundef nonnull @.str.11, ptr noundef nonnull getelementptr inbounds ([30 x i8], ptr @.str.11, i64 0, i64 29))
          to label %_ZNSt7__cxx1112basic_stringIcSt11char_traitsIcESaIcEEC2IS3_EEPKcRKS3_.exit13 unwind label %13

13:                                               ; preds = %.noexc10
  %14 = landingpad { ptr, i32 }
          cleanup
  call void @_ZNSaIcED2Ev(ptr noundef nonnull align 1 dereferenceable(1) %6) #17
  br label %.body

_ZNSt7__cxx1112basic_stringIcSt11char_traitsIcESaIcEEC2IS3_EEPKcRKS3_.exit13: ; preds = %.noexc10
  invoke void @_ZN5Ipopt14INTERNAL_ABORTC2ERKNSt7__cxx1112basic_stringIcSt11char_traitsIcESaIcEEES8_i(ptr noundef nonnull align 8 dereferenceable(112) %8, ptr noundef nonnull align 8 dereferenceable(32) %4, ptr noundef nonnull align 8 dereferenceable(32) %6, i32 noundef 550)
          to label %15 unwind label %20

15:                                               ; preds = %_ZNSt7__cxx1112basic_stringIcSt11char_traitsIcESaIcEEC2IS3_EEPKcRKS3_.exit13
  invoke void @__cxa_throw(ptr nonnull %8, ptr nonnull @_ZTIN5Ipopt14INTERNAL_ABORTE, ptr nonnull @_ZN5Ipopt14INTERNAL_ABORTD2Ev) #19
          to label %24 unwind label %20

16:                                               ; preds = %.noexc, %3
  %17 = landingpad { ptr, i32 }
          cleanup
  br label %.body.thread

18:                                               ; preds = %.noexc9, %_ZNSt7__cxx1112basic_stringIcSt11char_traitsIcESaIcEEC2IS3_EEPKcRKS3_.exit
  %19 = landingpad { ptr, i32 }
          cleanup
  br label %.body

20:                                               ; preds = %15, %_ZNSt7__cxx1112basic_stringIcSt11char_traitsIcESaIcEEC2IS3_EEPKcRKS3_.exit13
  %.0 = phi i1 [ false, %15 ], [ true, %_ZNSt7__cxx1112basic_stringIcSt11char_traitsIcESaIcEEC2IS3_EEPKcRKS3_.exit13 ]
  %21 = landingpad { ptr, i32 }
          cleanup
  call void @_ZNSt7__cxx1112basic_stringIcSt11char_traitsIcESaIcEED1Ev(ptr noundef nonnull align 8 dereferenceable(32) %6) #17
  br label %.body

.body.thread:                                     ; preds = %10, %16
  %.pn.pn.ph = phi { ptr, i32 } [ %11, %10 ], [ %17, %16 ]
  call void @_ZNSaIcED1Ev(ptr noundef nonnull align 1 dereferenceable(1) %5) #17
  br label %22

.body:                                            ; preds = %20, %13, %18
  %.pn = phi { ptr, i32 } [ %21, %20 ], [ %19, %18 ], [ %14, %13 ]
  %.1 = phi i1 [ %.0, %20 ], [ true, %18 ], [ true, %13 ]
  call void @_ZNSaIcED1Ev(ptr noundef nonnull align 1 dereferenceable(1) %7) #17
  call void @_ZNSt7__cxx1112basic_stringIcSt11char_traitsIcESaIcEED1Ev(ptr noundef nonnull align 8 dereferenceable(32) %4) #17
  call void @_ZNSaIcED1Ev(ptr noundef nonnull align 1 dereferenceable(1) %5) #17
  br i1 %.1, label %22, label %23

22:                                               ; preds = %.body.thread, %.body
  %.pn.pn17 = phi { ptr, i32 } [ %.pn.pn.ph, %.body.thread ], [ %.pn, %.body ]
  call void @__cxa_free_exception(ptr %8) #17
  br label %23

23:                                               ; preds = %.body, %22
  %.pn.pn16 = phi { ptr, i32 } [ %.pn, %.body ], [ %.pn.pn17, %22 ]
  resume { ptr, i32 } %.pn.pn16

24:                                               ; preds = %15
  unreachable
}